
string_num_converter:     file format elf64-x86-64


Disassembly of section ._start:

0000000000401000 <_start>:
  401000:	48 b8 00 20 40 00 00 	movabs rax,0x402000
  401007:	00 00 00 
  40100a:	48 bb 09 20 40 00 00 	movabs rbx,0x402009
  401011:	00 00 00 
  401014:	48 c7 c1 14 00 00 00 	mov    rcx,0x14
  40101b:	e8 18 00 00 00       	call   401038 <_start+0x38>
  401020:	e8 53 00 00 00       	call   401078 <_start+0x78>
  401025:	e8 e6 00 00 00       	call   401110 <_start+0x110>
  40102a:	e8 21 01 00 00       	call   401150 <_start+0x150>
  40102f:	e8 2c 01 00 00       	call   401160 <_start+0x160>

Disassembly of section .string_to_number:

0000000000401038 <.string_to_number>:
  401038:	53                   	push   rbx
  401039:	51                   	push   rcx
  40103a:	52                   	push   rdx
  40103b:	48 31 db             	xor    rbx,rbx
  40103e:	48 31 c9             	xor    rcx,rcx
  401041:	80 3c 18 00          	cmp    BYTE PTR [rax+rbx*1],0x0
  401045:	74 0f                	je     401056 <_start+0x56>
  401047:	8a 0c 18             	mov    cl,BYTE PTR [rax+rbx*1]
  40104a:	80 e9 30             	sub    cl,0x30
  40104d:	51                   	push   rcx
  40104e:	48 31 c9             	xor    rcx,rcx
  401051:	48 ff c3             	inc    rbx
  401054:	eb eb                	jmp    401041 <_start+0x41>
  401056:	48 31 c0             	xor    rax,rax
  401059:	48 ff c1             	inc    rcx
  40105c:	48 83 fb 00          	cmp    rbx,0x0
  401060:	74 11                	je     401073 <_start+0x73>
  401062:	5a                   	pop    rdx
  401063:	48 0f af d1          	imul   rdx,rcx
  401067:	48 6b c9 0a          	imul   rcx,rcx,0xa
  40106b:	48 01 d0             	add    rax,rdx
  40106e:	48 ff cb             	dec    rbx
  401071:	eb e9                	jmp    40105c <_start+0x5c>
  401073:	5a                   	pop    rdx
  401074:	59                   	pop    rcx
  401075:	5b                   	pop    rbx
  401076:	c3                   	ret    

Disassembly of section .number_to_string:

0000000000401078 <.number_to_string>:
  401078:	50                   	push   rax
  401079:	53                   	push   rbx
  40107a:	51                   	push   rcx
  40107b:	52                   	push   rdx
  40107c:	56                   	push   rsi
  40107d:	48 89 ce             	mov    rsi,rcx
  401080:	48 ff ce             	dec    rsi
  401083:	48 31 c9             	xor    rcx,rcx
  401086:	53                   	push   rbx
  401087:	48 c7 c3 0a 00 00 00 	mov    rbx,0xa
  40108e:	48 31 d2             	xor    rdx,rdx
  401091:	48 f7 f3             	div    rbx
  401094:	5b                   	pop    rbx
  401095:	48 83 c2 30          	add    rdx,0x30
  401099:	52                   	push   rdx
  40109a:	48 ff c1             	inc    rcx
  40109d:	48 83 f8 00          	cmp    rax,0x0
  4010a1:	74 04                	je     4010a7 <_start+0xa7>
  4010a3:	74 08                	je     4010ad <_start+0xad>
  4010a5:	eb df                	jmp    401086 <_start+0x86>
  4010a7:	48 89 ca             	mov    rdx,rcx
  4010aa:	48 31 c9             	xor    rcx,rcx
  4010ad:	48 39 f1             	cmp    rcx,rsi
  4010b0:	74 12                	je     4010c4 <_start+0xc4>
  4010b2:	48 39 d1             	cmp    rcx,rdx
  4010b5:	74 0a                	je     4010c1 <_start+0xc1>
  4010b7:	58                   	pop    rax
  4010b8:	48 89 04 0b          	mov    QWORD PTR [rbx+rcx*1],rax
  4010bc:	48 ff c1             	inc    rcx
  4010bf:	eb ec                	jmp    4010ad <_start+0xad>
  4010c1:	48 89 d6             	mov    rsi,rdx
  4010c4:	48 39 d1             	cmp    rcx,rdx
  4010c7:	74 06                	je     4010cf <_start+0xcf>
  4010c9:	58                   	pop    rax
  4010ca:	48 ff c1             	inc    rcx
  4010cd:	eb f5                	jmp    4010c4 <_start+0xc4>
  4010cf:	c6 04 33 00          	mov    BYTE PTR [rbx+rsi*1],0x0
  4010d3:	5e                   	pop    rsi
  4010d4:	5a                   	pop    rdx
  4010d5:	59                   	pop    rcx
  4010d6:	5b                   	pop    rbx
  4010d7:	58                   	pop    rax
  4010d8:	c3                   	ret    

Disassembly of section .print_char:

00000000004010e0 <.print_char>:
  4010e0:	50                   	push   rax
  4010e1:	53                   	push   rbx
  4010e2:	51                   	push   rcx
  4010e3:	52                   	push   rdx
  4010e4:	88 05 1e 0f 00 00    	mov    BYTE PTR [rip+0xf1e],al        # 402008 <__bss_start+0x4>
  4010ea:	48 c7 c0 04 00 00 00 	mov    rax,0x4
  4010f1:	48 c7 c3 01 00 00 00 	mov    rbx,0x1
  4010f8:	48 b9 08 20 40 00 00 	movabs rcx,0x402008
  4010ff:	00 00 00 
  401102:	48 c7 c2 01 00 00 00 	mov    rdx,0x1
  401109:	cd 80                	int    0x80
  40110b:	5a                   	pop    rdx
  40110c:	59                   	pop    rcx
  40110d:	5a                   	pop    rdx
  40110e:	58                   	pop    rax
  40110f:	c3                   	ret    

Disassembly of section .print_func:

0000000000401110 <.print_func>:
  401110:	50                   	push   rax
  401111:	53                   	push   rbx
  401112:	51                   	push   rcx
  401113:	52                   	push   rdx
  401114:	48 89 c1             	mov    rcx,rax
  401117:	e8 1c 00 00 00       	call   401138 <_start+0x138>
  40111c:	48 c7 c0 04 00 00 00 	mov    rax,0x4
  401123:	48 c7 c3 01 00 00 00 	mov    rbx,0x1
  40112a:	cd 80                	int    0x80
  40112c:	5a                   	pop    rdx
  40112d:	59                   	pop    rcx
  40112e:	5b                   	pop    rbx
  40112f:	58                   	pop    rax
  401130:	c3                   	ret    

Disassembly of section .length_string:

0000000000401138 <.length_string>:
  401138:	48 31 d2             	xor    rdx,rdx
  40113b:	e8 00 00 00 00       	call   401140 <_start+0x140>
  401140:	80 3c 10 00          	cmp    BYTE PTR [rax+rdx*1],0x0
  401144:	74 05                	je     40114b <_start+0x14b>
  401146:	48 ff c2             	inc    rdx
  401149:	eb f5                	jmp    401140 <_start+0x140>
  40114b:	c3                   	ret    

Disassembly of section .print_line:

0000000000401150 <.print_line>:
  401150:	50                   	push   rax
  401151:	48 c7 c0 0a 00 00 00 	mov    rax,0xa
  401158:	e8 83 ff ff ff       	call   4010e0 <_start+0xe0>
  40115d:	58                   	pop    rax
  40115e:	c3                   	ret    

Disassembly of section .exit:

0000000000401160 <.exit>:
  401160:	48 31 c0             	xor    rax,rax
  401163:	48 ff c0             	inc    rax
  401166:	48 31 db             	xor    rbx,rbx
  401169:	cd 80                	int    0x80
